; Function Attrs: uwtable
define void @_ZN9grpc_core19GrpcTimeoutMetadata6EncodeENS_9TimestampE(ptr noalias sret(%"class.grpc_core::Slice") align 8 %agg.result, i64 %x.coerce) local_unnamed_addr #8 align 2 {
entry:
  %ref.tmp = alloca %"class.grpc_core::Timeout", align 4
  br i1 icmp ne (ptr @_ZTHN9grpc_core9Timestamp25thread_local_time_source_E, ptr null), label %0, label %_ZN9grpc_core9Timestamp3NowEv.exit

0:                                                ; preds = %entry
  tail call void @_ZTHN9grpc_core9Timestamp25thread_local_time_source_E()
  br label %_ZN9grpc_core9Timestamp3NowEv.exit

_ZN9grpc_core9Timestamp3NowEv.exit:               ; preds = %entry, %0
  %1 = tail call noundef align 8 ptr @llvm.threadlocal.address.p0(ptr align 8 @_ZN9grpc_core9Timestamp25thread_local_time_source_E)
  %2 = load ptr, ptr %1, align 8
  %vtable.i = load ptr, ptr %2, align 8
  %3 = load ptr, ptr %vtable.i, align 8
  %call.i = tail call i64 %3(ptr noundef nonnull align 8 dereferenceable(8) %2)
  %sub.i = sub i64 0, %call.i
  %cmp.i.i = icmp eq i64 %x.coerce, 9223372036854775807
  %cmp2.i.i = icmp eq i64 %call.i, -9223372036854775807
  %or.cond.i.i = or i1 %cmp.i.i, %cmp2.i.i
  br i1 %or.cond.i.i, label %_ZN9grpc_coremiENS_9TimestampES0_.exit, label %if.end.i.i

if.end.i.i:                                       ; preds = %_ZN9grpc_core9Timestamp3NowEv.exit
  %cmp5.i.i = icmp eq i64 %x.coerce, -9223372036854775808
  %cmp8.i.i = icmp eq i64 %call.i, -9223372036854775808
  %or.cond5.i.i = or i1 %cmp5.i.i, %cmp8.i.i
  br i1 %or.cond5.i.i, label %_ZN9grpc_coremiENS_9TimestampES0_.exit, label %if.end11.i.i

if.end11.i.i:                                     ; preds = %if.end.i.i
  %cmp.i.i.i = icmp sgt i64 %x.coerce, 0
  br i1 %cmp.i.i.i, label %if.then.i.i.i, label %if.else.i.i.i

if.then.i.i.i:                                    ; preds = %if.end11.i.i
  %sub.i.i.i = xor i64 %x.coerce, 9223372036854775807
  %cmp1.i.i.i = icmp slt i64 %sub.i.i.i, %sub.i
  br i1 %cmp1.i.i.i, label %_ZN9grpc_coremiENS_9TimestampES0_.exit, label %if.end7.i.i.i

if.else.i.i.i:                                    ; preds = %if.end11.i.i
  %sub3.i.i.i = sub nsw i64 -9223372036854775808, %x.coerce
  %cmp4.i.i.i = icmp sgt i64 %sub3.i.i.i, %sub.i
  br i1 %cmp4.i.i.i, label %_ZN9grpc_coremiENS_9TimestampES0_.exit, label %if.end7.i.i.i

if.end7.i.i.i:                                    ; preds = %if.else.i.i.i, %if.then.i.i.i
  %add.i.i.i = sub i64 %x.coerce, %call.i
  br label %_ZN9grpc_coremiENS_9TimestampES0_.exit

_ZN9grpc_coremiENS_9TimestampES0_.exit:           ; preds = %_ZN9grpc_core9Timestamp3NowEv.exit, %if.end.i.i, %if.then.i.i.i, %if.else.i.i.i, %if.end7.i.i.i
  %retval.0.i.i = phi i64 [ 9223372036854775807, %_ZN9grpc_core9Timestamp3NowEv.exit ], [ -9223372036854775808, %if.end.i.i ], [ %add.i.i.i, %if.end7.i.i.i ], [ 9223372036854775807, %if.then.i.i.i ], [ -9223372036854775808, %if.else.i.i.i ]
  %call9 = tail call i32 @_ZN9grpc_core7Timeout12FromDurationENS_8DurationE(i64 %retval.0.i.i)
  store i32 %call9, ptr %ref.tmp, align 4
  call void @_ZNK9grpc_core7Timeout6EncodeEv(ptr sret(%"class.grpc_core::Slice") align 8 %agg.result, ptr noundef nonnull align 2 dereferenceable(3) %ref.tmp)
  ret void
}